target datalayout = "e-m:e-p270:32:32-p271:32:32-p272:64:64-i64:64-i128:128-f80:128-n8:16:32:64-S128"
target triple = "x86_64-pc-linux-gnu"

%struct._lzma_state = type { ptr, ptr, ptr, ptr }

@.str.29 = private unnamed_addr constant [28 x i8] c"Unsupported integrity check\00", align 1
@.str.30 = private unnamed_addr constant [28 x i8] c"Memory usage limit exceeded\00", align 1
@.str.31 = private unnamed_addr constant [38 x i8] c"Input format not supported by decoder\00", align 1
@.str.32 = private unnamed_addr constant [31 x i8] c"Invalid or unsupported options\00", align 1
@.str.33 = private unnamed_addr constant [19 x i8] c"Corrupt input data\00", align 1
@.str.34 = private unnamed_addr constant [26 x i8] c"Insufficient buffer space\00", align 1
@.str.35 = private unnamed_addr constant [15 x i8] c"Internal error\00", align 1
@.str.36 = private unnamed_addr constant [36 x i8] c"Unrecognized error from liblzma: %d\00", align 1

; Function Attrs: nounwind uwtable
define internal i32 @catch_lzma_error(ptr noundef %0, i32 noundef %1) #0 {
  %3 = alloca i32, align 4
  %4 = alloca ptr, align 8
  %5 = alloca i32, align 4
  store ptr %0, ptr %4, align 8, !tbaa !8
  store i32 %1, ptr %5, align 4, !tbaa !12
  %6 = load i32, ptr %5, align 4, !tbaa !12
  switch i32 %6, label %38 [
    i32 0, label %7
    i32 4, label %7
    i32 2, label %7
    i32 1, label %7
    i32 3, label %8
    i32 5, label %12
    i32 6, label %14
    i32 7, label %18
    i32 8, label %22
    i32 9, label %26
    i32 10, label %30
    i32 11, label %34
  ]

7:                                                ; preds = %2, %2, %2, %2
  store i32 0, ptr %3, align 4
  br label %44

8:                                                ; preds = %2
  %9 = load ptr, ptr %4, align 8, !tbaa !8
  %10 = getelementptr inbounds nuw %struct._lzma_state, ptr %9, i32 0, i32 2
  %11 = load ptr, ptr %10, align 8, !tbaa !15
  call void @PyErr_SetString(ptr noundef %11, ptr noundef @.str.29)
  store i32 1, ptr %3, align 4
  br label %44

12:                                               ; preds = %2
  %13 = call ptr @PyErr_NoMemory()
  store i32 1, ptr %3, align 4
  br label %44

14:                                               ; preds = %2
  %15 = load ptr, ptr %4, align 8, !tbaa !8
  %16 = getelementptr inbounds nuw %struct._lzma_state, ptr %15, i32 0, i32 2
  %17 = load ptr, ptr %16, align 8, !tbaa !15
  call void @PyErr_SetString(ptr noundef %17, ptr noundef @.str.30)
  store i32 1, ptr %3, align 4
  br label %44

18:                                               ; preds = %2
  %19 = load ptr, ptr %4, align 8, !tbaa !8
  %20 = getelementptr inbounds nuw %struct._lzma_state, ptr %19, i32 0, i32 2
  %21 = load ptr, ptr %20, align 8, !tbaa !15
  call void @PyErr_SetString(ptr noundef %21, ptr noundef @.str.31)
  store i32 1, ptr %3, align 4
  br label %44

22:                                               ; preds = %2
  %23 = load ptr, ptr %4, align 8, !tbaa !8
  %24 = getelementptr inbounds nuw %struct._lzma_state, ptr %23, i32 0, i32 2
  %25 = load ptr, ptr %24, align 8, !tbaa !15
  call void @PyErr_SetString(ptr noundef %25, ptr noundef @.str.32)
  store i32 1, ptr %3, align 4
  br label %44

26:                                               ; preds = %2
  %27 = load ptr, ptr %4, align 8, !tbaa !8
  %28 = getelementptr inbounds nuw %struct._lzma_state, ptr %27, i32 0, i32 2
  %29 = load ptr, ptr %28, align 8, !tbaa !15
  call void @PyErr_SetString(ptr noundef %29, ptr noundef @.str.33)
  store i32 1, ptr %3, align 4
  br label %44

30:                                               ; preds = %2
  %31 = load ptr, ptr %4, align 8, !tbaa !8
  %32 = getelementptr inbounds nuw %struct._lzma_state, ptr %31, i32 0, i32 2
  %33 = load ptr, ptr %32, align 8, !tbaa !15
  call void @PyErr_SetString(ptr noundef %33, ptr noundef @.str.34)
  store i32 1, ptr %3, align 4
  br label %44

34:                                               ; preds = %2
  %35 = load ptr, ptr %4, align 8, !tbaa !8
  %36 = getelementptr inbounds nuw %struct._lzma_state, ptr %35, i32 0, i32 2
  %37 = load ptr, ptr %36, align 8, !tbaa !15
  call void @PyErr_SetString(ptr noundef %37, ptr noundef @.str.35)
  store i32 1, ptr %3, align 4
  br label %44

38:                                               ; preds = %2
  %39 = load ptr, ptr %4, align 8, !tbaa !8
  %40 = getelementptr inbounds nuw %struct._lzma_state, ptr %39, i32 0, i32 2
  %41 = load ptr, ptr %40, align 8, !tbaa !15
  %42 = load i32, ptr %5, align 4, !tbaa !12
  %43 = call ptr (ptr, ptr, ...) @PyErr_Format(ptr noundef %41, ptr noundef @.str.36, i32 noundef %42)
  store i32 1, ptr %3, align 4
  br label %44

44:                                               ; preds = %38, %34, %30, %26, %22, %18, %14, %12, %8, %7
  %45 = load i32, ptr %3, align 4
  ret i32 %45
}