; Function Attrs: nounwind uwtable
define internal fastcc range(i32 0, 2) i32 @catch_lzma_error(ptr noundef readonly captures(none) %0, i32 noundef %1) unnamed_addr #0 {
  switch i32 %1, label %26 [
    i32 0, label %30
    i32 4, label %30
    i32 2, label %30
    i32 1, label %30
    i32 3, label %3
    i32 5, label %6
    i32 6, label %8
    i32 7, label %11
    i32 8, label %14
    i32 9, label %17
    i32 10, label %20
    i32 11, label %23
  ]

3:                                                ; preds = %2
  %4 = getelementptr inbounds nuw i8, ptr %0, i64 16
  %5 = load ptr, ptr %4, align 8, !tbaa !11
  tail call void @PyErr_SetString(ptr noundef %5, ptr noundef nonnull @.str.29) #10
  br label %30

6:                                                ; preds = %2
  %7 = tail call ptr @PyErr_NoMemory() #10
  br label %30

8:                                                ; preds = %2
  %9 = getelementptr inbounds nuw i8, ptr %0, i64 16
  %10 = load ptr, ptr %9, align 8, !tbaa !11
  tail call void @PyErr_SetString(ptr noundef %10, ptr noundef nonnull @.str.30) #10
  br label %30

11:                                               ; preds = %2
  %12 = getelementptr inbounds nuw i8, ptr %0, i64 16
  %13 = load ptr, ptr %12, align 8, !tbaa !11
  tail call void @PyErr_SetString(ptr noundef %13, ptr noundef nonnull @.str.31) #10
  br label %30

14:                                               ; preds = %2
  %15 = getelementptr inbounds nuw i8, ptr %0, i64 16
  %16 = load ptr, ptr %15, align 8, !tbaa !11
  tail call void @PyErr_SetString(ptr noundef %16, ptr noundef nonnull @.str.32) #10
  br label %30

17:                                               ; preds = %2
  %18 = getelementptr inbounds nuw i8, ptr %0, i64 16
  %19 = load ptr, ptr %18, align 8, !tbaa !11
  tail call void @PyErr_SetString(ptr noundef %19, ptr noundef nonnull @.str.33) #10
  br label %30

20:                                               ; preds = %2
  %21 = getelementptr inbounds nuw i8, ptr %0, i64 16
  %22 = load ptr, ptr %21, align 8, !tbaa !11
  tail call void @PyErr_SetString(ptr noundef %22, ptr noundef nonnull @.str.34) #10
  br label %30

23:                                               ; preds = %2
  %24 = getelementptr inbounds nuw i8, ptr %0, i64 16
  %25 = load ptr, ptr %24, align 8, !tbaa !11
  tail call void @PyErr_SetString(ptr noundef %25, ptr noundef nonnull @.str.35) #10
  br label %30

26:                                               ; preds = %2
  %27 = getelementptr inbounds nuw i8, ptr %0, i64 16
  %28 = load ptr, ptr %27, align 8, !tbaa !11
  %29 = tail call ptr (ptr, ptr, ...) @PyErr_Format(ptr noundef %28, ptr noundef nonnull @.str.36, i32 noundef %1) #10
  br label %30

30:                                               ; preds = %2, %2, %2, %2, %26, %23, %20, %17, %14, %11, %8, %6, %3
  %.0 = phi i32 [ 1, %26 ], [ 1, %23 ], [ 1, %20 ], [ 1, %17 ], [ 1, %14 ], [ 1, %11 ], [ 1, %8 ], [ 1, %6 ], [ 1, %3 ], [ 0, %2 ], [ 0, %2 ], [ 0, %2 ], [ 0, %2 ]
  ret i32 %.0
}